; ModuleID = '55/1339.cpp'
source_filename = "55/1339.cpp"
target datalayout = "e-m:e-p270:32:32-p271:32:32-p272:64:64-i64:64-f80:128-n8:16:32:64-S128"
target triple = "x86_64-pc-linux-gnu"

%"class.std::ios_base::Init" = type { i8 }
%"class.std::basic_ostream" = type { i32 (...)**, %"class.std::basic_ios" }
%"class.std::basic_ios" = type { %"class.std::ios_base", %"class.std::basic_ostream"*, i8, i8, %"class.std::basic_streambuf"*, %"class.std::ctype"*, %"class.std::num_put"*, %"class.std::num_get"* }
%"class.std::ios_base" = type { i32 (...)**, i64, i64, i32, i32, i32, %"struct.std::ios_base::_Callback_list"*, %"struct.std::ios_base::_Words", [8 x %"struct.std::ios_base::_Words"], i32, %"struct.std::ios_base::_Words"*, %"class.std::locale" }
%"struct.std::ios_base::_Callback_list" = type { %"struct.std::ios_base::_Callback_list"*, void (i32, %"class.std::ios_base"*, i32)*, i32, i32 }
%"struct.std::ios_base::_Words" = type { i8*, i64 }
%"class.std::locale" = type { %"class.std::locale::_Impl"* }
%"class.std::locale::_Impl" = type { i32, %"class.std::locale::facet"**, i64, %"class.std::locale::facet"**, i8** }
%"class.std::locale::facet" = type <{ i32 (...)**, i32, [4 x i8] }>
%"class.std::basic_streambuf" = type { i32 (...)**, i8*, i8*, i8*, i8*, i8*, i8*, %"class.std::locale" }
%"class.std::ctype" = type <{ %"class.std::locale::facet.base", [4 x i8], %struct.__locale_struct*, i8, [7 x i8], i32*, i32*, i16*, i8, [256 x i8], [256 x i8], i8, [6 x i8] }>
%"class.std::locale::facet.base" = type <{ i32 (...)**, i32 }>
%struct.__locale_struct = type { [13 x %struct.__locale_data*], i16*, i32*, i32*, [13 x i8*] }
%struct.__locale_data = type opaque
%"class.std::num_put" = type { %"class.std::locale::facet.base", [4 x i8] }
%"class.std::num_get" = type { %"class.std::locale::facet.base", [4 x i8] }
%"class.std::basic_istream" = type { i32 (...)**, i64, %"class.std::basic_ios" }

$_ZSt3powIdiEN9__gnu_cxx11__promote_2IT_T0_NS0_9__promoteIS2_Xsr3std12__is_integerIS2_EE7__valueEE6__typeENS4_IS3_Xsr3std12__is_integerIS3_EE7__valueEE6__typeEE6__typeES2_S3_ = comdat any

@_ZStL8__ioinit = internal global %"class.std::ios_base::Init" zeroinitializer, align 1
@__dso_handle = external hidden global i8
@__const._Z3runiPci.d = private unnamed_addr constant [36 x i8] c"0123456789ABCDEFGHIJKLMNOPQRSTUVWXYZ", align 16
@_ZSt4cout = external dso_local global %"class.std::basic_ostream", align 8
@.str = private unnamed_addr constant [2 x i8] c"0\00", align 1
@_ZSt3cin = external dso_local global %"class.std::basic_istream", align 8
@llvm.global_ctors = appending global [1 x { i32, void ()*, i8* }] [{ i32, void ()*, i8* } { i32 65535, void ()* @_GLOBAL__sub_I_1339.cpp, i8* null }]

; Function Attrs: noinline uwtable
define internal void @__cxx_global_var_init() #0 section ".text.startup" {
  call void @_ZNSt8ios_base4InitC1Ev(%"class.std::ios_base::Init"* @_ZStL8__ioinit)
  %1 = call i32 @__cxa_atexit(void (i8*)* bitcast (void (%"class.std::ios_base::Init"*)* @_ZNSt8ios_base4InitD1Ev to void (i8*)*), i8* getelementptr inbounds (%"class.std::ios_base::Init", %"class.std::ios_base::Init"* @_ZStL8__ioinit, i32 0, i32 0), i8* @__dso_handle) #3
  ret void
}

declare dso_local void @_ZNSt8ios_base4InitC1Ev(%"class.std::ios_base::Init"*) unnamed_addr #1

; Function Attrs: nounwind
declare dso_local void @_ZNSt8ios_base4InitD1Ev(%"class.std::ios_base::Init"*) unnamed_addr #2

; Function Attrs: nounwind
declare dso_local i32 @__cxa_atexit(void (i8*)*, i8*, i8*) #3

; Function Attrs: noinline uwtable
define dso_local void @_Z3runiPci(i32 %0, i8* %1, i32 %2) #0 {
  %4 = alloca i32, align 4
  %5 = alloca i8*, align 8
  %6 = alloca i32, align 4
  %7 = alloca [36 x i8], align 16
  %8 = alloca i32, align 4
  %9 = alloca [50 x i32], align 16
  %10 = alloca [50 x i32], align 16
  %11 = alloca i32, align 4
  %12 = alloca i32, align 4
  store i32 %0, i32* %4, align 4
  store i8* %1, i8** %5, align 8
  store i32 %2, i32* %6, align 4
  %13 = bitcast [36 x i8]* %7 to i8*
  call void @llvm.memcpy.p0i8.p0i8.i64(i8* align 16 %13, i8* align 16 getelementptr inbounds ([36 x i8], [36 x i8]* @__const._Z3runiPci.d, i32 0, i32 0), i64 36, i1 false)
  %14 = load i8*, i8** %5, align 8
  %15 = call i64 @strlen(i8* %14) #8
  %16 = trunc i64 %15 to i32
  store i32 %16, i32* %8, align 4
  %17 = bitcast [50 x i32]* %9 to i8*
  call void @llvm.memset.p0i8.i64(i8* align 16 %17, i8 0, i64 200, i1 false)
  %18 = bitcast [50 x i32]* %10 to i8*
  call void @llvm.memset.p0i8.i64(i8* align 16 %18, i8 0, i64 200, i1 false)
  store i32 0, i32* %11, align 4
  store i32 0, i32* %12, align 4
  store i32 0, i32* %12, align 4
  br label %19

19:                                               ; preds = %108, %3
  %20 = load i32, i32* %12, align 4
  %21 = load i32, i32* %8, align 4
  %22 = icmp slt i32 %20, %21
  br i1 %22, label %23, label %111

23:                                               ; preds = %19
  %24 = load i8*, i8** %5, align 8
  %25 = load i32, i32* %12, align 4
  %26 = sext i32 %25 to i64
  %27 = getelementptr inbounds i8, i8* %24, i64 %26
  %28 = load i8, i8* %27, align 1
  %29 = sext i8 %28 to i32
  %30 = icmp sge i32 %29, 65
  br i1 %30, label %31, label %50

31:                                               ; preds = %23
  %32 = load i8*, i8** %5, align 8
  %33 = load i32, i32* %12, align 4
  %34 = sext i32 %33 to i64
  %35 = getelementptr inbounds i8, i8* %32, i64 %34
  %36 = load i8, i8* %35, align 1
  %37 = sext i8 %36 to i32
  %38 = icmp sle i32 %37, 90
  br i1 %38, label %39, label %50

39:                                               ; preds = %31
  %40 = load i8*, i8** %5, align 8
  %41 = load i32, i32* %12, align 4
  %42 = sext i32 %41 to i64
  %43 = getelementptr inbounds i8, i8* %40, i64 %42
  %44 = load i8, i8* %43, align 1
  %45 = sext i8 %44 to i32
  %46 = sub nsw i32 %45, 55
  %47 = load i32, i32* %12, align 4
  %48 = sext i32 %47 to i64
  %49 = getelementptr inbounds [50 x i32], [50 x i32]* %9, i64 0, i64 %48
  store i32 %46, i32* %49, align 4
  br label %89

50:                                               ; preds = %31, %23
  %51 = load i8*, i8** %5, align 8
  %52 = load i32, i32* %12, align 4
  %53 = sext i32 %52 to i64
  %54 = getelementptr inbounds i8, i8* %51, i64 %53
  %55 = load i8, i8* %54, align 1
  %56 = sext i8 %55 to i32
  %57 = icmp sge i32 %56, 97
  br i1 %57, label %58, label %77

58:                                               ; preds = %50
  %59 = load i8*, i8** %5, align 8
  %60 = load i32, i32* %12, align 4
  %61 = sext i32 %60 to i64
  %62 = getelementptr inbounds i8, i8* %59, i64 %61
  %63 = load i8, i8* %62, align 1
  %64 = sext i8 %63 to i32
  %65 = icmp sle i32 %64, 122
  br i1 %65, label %66, label %77

66:                                               ; preds = %58
  %67 = load i8*, i8** %5, align 8
  %68 = load i32, i32* %12, align 4
  %69 = sext i32 %68 to i64
  %70 = getelementptr inbounds i8, i8* %67, i64 %69
  %71 = load i8, i8* %70, align 1
  %72 = sext i8 %71 to i32
  %73 = sub nsw i32 %72, 87
  %74 = load i32, i32* %12, align 4
  %75 = sext i32 %74 to i64
  %76 = getelementptr inbounds [50 x i32], [50 x i32]* %9, i64 0, i64 %75
  store i32 %73, i32* %76, align 4
  br label %88

77:                                               ; preds = %58, %50
  %78 = load i8*, i8** %5, align 8
  %79 = load i32, i32* %12, align 4
  %80 = sext i32 %79 to i64
  %81 = getelementptr inbounds i8, i8* %78, i64 %80
  %82 = load i8, i8* %81, align 1
  %83 = sext i8 %82 to i32
  %84 = sub nsw i32 %83, 48
  %85 = load i32, i32* %12, align 4
  %86 = sext i32 %85 to i64
  %87 = getelementptr inbounds [50 x i32], [50 x i32]* %9, i64 0, i64 %86
  store i32 %84, i32* %87, align 4
  br label %88

88:                                               ; preds = %77, %66
  br label %89

89:                                               ; preds = %88, %39
  %90 = load i32, i32* %12, align 4
  %91 = sext i32 %90 to i64
  %92 = getelementptr inbounds [50 x i32], [50 x i32]* %9, i64 0, i64 %91
  %93 = load i32, i32* %92, align 4
  %94 = sitofp i32 %93 to double
  %95 = load i32, i32* %4, align 4
  %96 = sitofp i32 %95 to double
  %97 = fadd double %96, 0.000000e+00
  %98 = load i32, i32* %8, align 4
  %99 = load i32, i32* %12, align 4
  %100 = sub nsw i32 %98, %99
  %101 = sub nsw i32 %100, 1
  %102 = call double @_ZSt3powIdiEN9__gnu_cxx11__promote_2IT_T0_NS0_9__promoteIS2_Xsr3std12__is_integerIS2_EE7__valueEE6__typeENS4_IS3_Xsr3std12__is_integerIS3_EE7__valueEE6__typeEE6__typeES2_S3_(double %97, i32 %101)
  %103 = fmul double %94, %102
  %104 = load i32, i32* %11, align 4
  %105 = sitofp i32 %104 to double
  %106 = fadd double %105, %103
  %107 = fptosi double %106 to i32
  store i32 %107, i32* %11, align 4
  br label %108

108:                                              ; preds = %89
  %109 = load i32, i32* %12, align 4
  %110 = add nsw i32 %109, 1
  store i32 %110, i32* %12, align 4
  br label %19

111:                                              ; preds = %19
  store i32 0, i32* %12, align 4
  br label %112

112:                                              ; preds = %115, %111
  %113 = load i32, i32* %11, align 4
  %114 = icmp sgt i32 %113, 0
  br i1 %114, label %115, label %126

115:                                              ; preds = %112
  %116 = load i32, i32* %11, align 4
  %117 = load i32, i32* %6, align 4
  %118 = srem i32 %116, %117
  %119 = load i32, i32* %12, align 4
  %120 = add nsw i32 %119, 1
  store i32 %120, i32* %12, align 4
  %121 = sext i32 %119 to i64
  %122 = getelementptr inbounds [50 x i32], [50 x i32]* %10, i64 0, i64 %121
  store i32 %118, i32* %122, align 4
  %123 = load i32, i32* %11, align 4
  %124 = load i32, i32* %6, align 4
  %125 = sdiv i32 %123, %124
  store i32 %125, i32* %11, align 4
  br label %112

126:                                              ; preds = %112
  %127 = load i32, i32* %12, align 4
  %128 = icmp eq i32 %127, 0
  br i1 %128, label %129, label %131

129:                                              ; preds = %126
  %130 = call dereferenceable(272) %"class.std::basic_ostream"* @_ZStlsISt11char_traitsIcEERSt13basic_ostreamIcT_ES5_PKc(%"class.std::basic_ostream"* dereferenceable(272) @_ZSt4cout, i8* getelementptr inbounds ([2 x i8], [2 x i8]* @.str, i64 0, i64 0))
  br label %150

131:                                              ; preds = %126
  %132 = load i32, i32* %12, align 4
  %133 = add nsw i32 %132, -1
  store i32 %133, i32* %12, align 4
  br label %134

134:                                              ; preds = %146, %131
  %135 = load i32, i32* %12, align 4
  %136 = icmp sge i32 %135, 0
  br i1 %136, label %137, label %149

137:                                              ; preds = %134
  %138 = load i32, i32* %12, align 4
  %139 = sext i32 %138 to i64
  %140 = getelementptr inbounds [50 x i32], [50 x i32]* %10, i64 0, i64 %139
  %141 = load i32, i32* %140, align 4
  %142 = sext i32 %141 to i64
  %143 = getelementptr inbounds [36 x i8], [36 x i8]* %7, i64 0, i64 %142
  %144 = load i8, i8* %143, align 1
  %145 = call dereferenceable(272) %"class.std::basic_ostream"* @_ZStlsISt11char_traitsIcEERSt13basic_ostreamIcT_ES5_c(%"class.std::basic_ostream"* dereferenceable(272) @_ZSt4cout, i8 signext %144)
  br label %146

146:                                              ; preds = %137
  %147 = load i32, i32* %12, align 4
  %148 = add nsw i32 %147, -1
  store i32 %148, i32* %12, align 4
  br label %134

149:                                              ; preds = %134
  br label %150

150:                                              ; preds = %149, %129
  ret void
}

; Function Attrs: argmemonly nounwind willreturn
declare void @llvm.memcpy.p0i8.p0i8.i64(i8* noalias nocapture writeonly, i8* noalias nocapture readonly, i64, i1 immarg) #4

; Function Attrs: nounwind readonly
declare dso_local i64 @strlen(i8*) #5

; Function Attrs: argmemonly nounwind willreturn
declare void @llvm.memset.p0i8.i64(i8* nocapture writeonly, i8, i64, i1 immarg) #4

; Function Attrs: noinline nounwind uwtable
define linkonce_odr dso_local double @_ZSt3powIdiEN9__gnu_cxx11__promote_2IT_T0_NS0_9__promoteIS2_Xsr3std12__is_integerIS2_EE7__valueEE6__typeENS4_IS3_Xsr3std12__is_integerIS3_EE7__valueEE6__typeEE6__typeES2_S3_(double %0, i32 %1) #6 comdat {
  %3 = alloca double, align 8
  %4 = alloca i32, align 4
  store double %0, double* %3, align 8
  store i32 %1, i32* %4, align 4
  %5 = load double, double* %3, align 8
  %6 = load i32, i32* %4, align 4
  %7 = sitofp i32 %6 to double
  %8 = call double @pow(double %5, double %7) #3
  ret double %8
}

declare dso_local dereferenceable(272) %"class.std::basic_ostream"* @_ZStlsISt11char_traitsIcEERSt13basic_ostreamIcT_ES5_PKc(%"class.std::basic_ostream"* dereferenceable(272), i8*) #1

declare dso_local dereferenceable(272) %"class.std::basic_ostream"* @_ZStlsISt11char_traitsIcEERSt13basic_ostreamIcT_ES5_c(%"class.std::basic_ostream"* dereferenceable(272), i8 signext) #1

; Function Attrs: noinline norecurse uwtable
define dso_local i32 @main() #7 {
  %1 = alloca i32, align 4
  %2 = alloca i32, align 4
  %3 = alloca i32, align 4
  %4 = alloca i32, align 4
  %5 = alloca [50 x i8], align 16
  store i32 0, i32* %1, align 4
  store i32 0, i32* %4, align 4
  br label %6

6:                                                ; preds = %13, %0
  %7 = load i32, i32* %4, align 4
  %8 = icmp slt i32 %7, 50
  br i1 %8, label %9, label %16

9:                                                ; preds = %6
  %10 = load i32, i32* %4, align 4
  %11 = sext i32 %10 to i64
  %12 = getelementptr inbounds [50 x i8], [50 x i8]* %5, i64 0, i64 %11
  store i8 0, i8* %12, align 1
  br label %13

13:                                               ; preds = %9
  %14 = load i32, i32* %4, align 4
  %15 = add nsw i32 %14, 1
  store i32 %15, i32* %4, align 4
  br label %6

16:                                               ; preds = %6
  %17 = call dereferenceable(280) %"class.std::basic_istream"* @_ZNSirsERi(%"class.std::basic_istream"* @_ZSt3cin, i32* dereferenceable(4) %2)
  %18 = getelementptr inbounds [50 x i8], [50 x i8]* %5, i64 0, i64 0
  %19 = call dereferenceable(280) %"class.std::basic_istream"* @_ZStrsIcSt11char_traitsIcEERSt13basic_istreamIT_T0_ES6_PS3_(%"class.std::basic_istream"* dereferenceable(280) %17, i8* %18)
  %20 = call dereferenceable(280) %"class.std::basic_istream"* @_ZNSirsERi(%"class.std::basic_istream"* %19, i32* dereferenceable(4) %3)
  %21 = load i32, i32* %2, align 4
  %22 = getelementptr inbounds [50 x i8], [50 x i8]* %5, i64 0, i64 0
  %23 = load i32, i32* %3, align 4
  call void @_Z3runiPci(i32 %21, i8* %22, i32 %23)
  ret i32 0
}

declare dso_local dereferenceable(280) %"class.std::basic_istream"* @_ZStrsIcSt11char_traitsIcEERSt13basic_istreamIT_T0_ES6_PS3_(%"class.std::basic_istream"* dereferenceable(280), i8*) #1

declare dso_local dereferenceable(280) %"class.std::basic_istream"* @_ZNSirsERi(%"class.std::basic_istream"*, i32* dereferenceable(4)) #1

; Function Attrs: nounwind
declare dso_local double @pow(double, double) #2

; Function Attrs: noinline uwtable
define internal void @_GLOBAL__sub_I_1339.cpp() #0 section ".text.startup" {
  call void @__cxx_global_var_init()
  ret void
}


!llvm.module.flags = !{!0}
!llvm.ident = !{!1}

!0 = !{i32 1, !"wchar_size", i32 4}
!1 = !{!"clang version 10.0.0-4ubuntu1 "}
