; ModuleID = 'source-C-CXX/54/1339.cpp'
source_filename = "source-C-CXX/54/1339.cpp"
target datalayout = "e-m:e-p270:32:32-p271:32:32-p272:64:64-i64:64-f80:128-n8:16:32:64-S128"
target triple = "x86_64-pc-linux-gnu"

%"class.std::ios_base::Init" = type { i8 }
%"class.std::basic_ostream" = type { i32 (...)**, %"class.std::basic_ios" }
%"class.std::basic_ios" = type { %"class.std::ios_base", %"class.std::basic_ostream"*, i8, i8, %"class.std::basic_streambuf"*, %"class.std::ctype"*, %"class.std::num_put"*, %"class.std::num_get"* }
%"class.std::ios_base" = type { i32 (...)**, i64, i64, i32, i32, i32, %"struct.std::ios_base::_Callback_list"*, %"struct.std::ios_base::_Words", [8 x %"struct.std::ios_base::_Words"], i32, %"struct.std::ios_base::_Words"*, %"class.std::locale" }
%"struct.std::ios_base::_Callback_list" = type { %"struct.std::ios_base::_Callback_list"*, void (i32, %"class.std::ios_base"*, i32)*, i32, i32 }
%"struct.std::ios_base::_Words" = type { i8*, i64 }
%"class.std::locale" = type { %"class.std::locale::_Impl"* }
%"class.std::locale::_Impl" = type { i32, %"class.std::locale::facet"**, i64, %"class.std::locale::facet"**, i8** }
%"class.std::locale::facet" = type <{ i32 (...)**, i32, [4 x i8] }>
%"class.std::basic_streambuf" = type { i32 (...)**, i8*, i8*, i8*, i8*, i8*, i8*, %"class.std::locale" }
%"class.std::ctype" = type <{ %"class.std::locale::facet.base", [4 x i8], %struct.__locale_struct*, i8, [7 x i8], i32*, i32*, i16*, i8, [256 x i8], [256 x i8], i8, [6 x i8] }>
%"class.std::locale::facet.base" = type <{ i32 (...)**, i32 }>
%struct.__locale_struct = type { [13 x %struct.__locale_data*], i16*, i32*, i32*, [13 x i8*] }
%struct.__locale_data = type opaque
%"class.std::num_put" = type { %"class.std::locale::facet.base", [4 x i8] }
%"class.std::num_get" = type { %"class.std::locale::facet.base", [4 x i8] }
%"class.std::basic_istream" = type { i32 (...)**, i64, %"class.std::basic_ios" }

@_ZStL8__ioinit = internal global %"class.std::ios_base::Init" zeroinitializer, align 1
@__dso_handle = external hidden global i8
@__const._Z3runiPci.d = private unnamed_addr constant [36 x i8] c"0123456789ABCDEFGHIJKLMNOPQRSTUVWXYZ", align 16
@_ZSt4cout = external global %"class.std::basic_ostream", align 8
@.str = private unnamed_addr constant [2 x i8] c"0\00", align 1
@_ZSt3cin = external global %"class.std::basic_istream", align 8
@llvm.global_ctors = appending global [1 x { i32, void ()*, i8* }] [{ i32, void ()*, i8* } { i32 65535, void ()* @_GLOBAL__sub_I_1339.cpp, i8* null }]

declare void @_ZNSt8ios_base4InitC1Ev(%"class.std::ios_base::Init"* nonnull align 1 dereferenceable(1)) unnamed_addr #0

; Function Attrs: nounwind
declare void @_ZNSt8ios_base4InitD1Ev(%"class.std::ios_base::Init"* nonnull align 1 dereferenceable(1)) unnamed_addr #1

; Function Attrs: nofree nounwind
declare i32 @__cxa_atexit(void (i8*)*, i8*, i8*) local_unnamed_addr #2

; Function Attrs: mustprogress sspstrong uwtable
define dso_local void @_Z3runiPci(i32 %0, i8* nocapture readonly %1, i32 %2) local_unnamed_addr #3 {
  %4 = alloca i8, align 1
  %5 = alloca [50 x i32], align 16
  %6 = tail call i64 @strlen(i8* noundef nonnull dereferenceable(1) %1) #10
  %7 = trunc i64 %6 to i32
  %8 = bitcast [50 x i32]* %5 to i8*
  call void @llvm.lifetime.start.p0i8(i64 200, i8* nonnull %8) #11
  call void @llvm.memset.p0i8.i64(i8* noundef nonnull align 16 dereferenceable(200) %8, i8 0, i64 200, i1 false)
  %9 = sitofp i32 %0 to double
  %10 = icmp sgt i32 %7, 0
  br i1 %10, label %11, label %56

11:                                               ; preds = %3
  %12 = and i64 %6, 4294967295
  br label %15

13:                                               ; preds = %15
  %14 = icmp sgt i32 %37, 0
  br i1 %14, label %41, label %56

15:                                               ; preds = %11, %15
  %16 = phi i64 [ 0, %11 ], [ %38, %15 ]
  %17 = phi i32 [ 0, %11 ], [ %39, %15 ]
  %18 = phi i32 [ 0, %11 ], [ %37, %15 ]
  %19 = getelementptr inbounds i8, i8* %1, i64 %16
  %20 = load i8, i8* %19, align 1, !tbaa !5
  %21 = sext i8 %20 to i32
  %22 = add i8 %20, -65
  %23 = icmp ult i8 %22, 26
  %24 = add i8 %20, -97
  %25 = icmp ult i8 %24, 26
  %26 = select i1 %25, i32 -87, i32 -48
  %27 = select i1 %23, i32 -55, i32 %26
  %28 = add nsw i32 %27, %21
  %29 = sitofp i32 %28 to double
  %30 = xor i32 %17, -1
  %31 = add i32 %30, %7
  %32 = sitofp i32 %31 to double
  %33 = tail call double @pow(double %9, double %32) #11
  %34 = fmul double %33, %29
  %35 = sitofp i32 %18 to double
  %36 = fadd double %34, %35
  %37 = fptosi double %36 to i32
  %38 = add nuw nsw i64 %16, 1
  %39 = add nuw nsw i32 %17, 1
  %40 = icmp eq i64 %38, %12
  br i1 %40, label %13, label %15, !llvm.loop !8

41:                                               ; preds = %13, %41
  %42 = phi i64 [ %45, %41 ], [ 0, %13 ]
  %43 = phi i32 [ %47, %41 ], [ %37, %13 ]
  %44 = srem i32 %43, %2
  %45 = add nuw i64 %42, 1
  %46 = getelementptr inbounds [50 x i32], [50 x i32]* %5, i64 0, i64 %42
  store i32 %44, i32* %46, align 4, !tbaa !10
  %47 = sdiv i32 %43, %2
  %48 = icmp sgt i32 %47, 0
  br i1 %48, label %41, label %49, !llvm.loop !12

49:                                               ; preds = %41
  %50 = trunc i64 %45 to i32
  %51 = icmp eq i32 %50, 0
  br i1 %51, label %56, label %52

52:                                               ; preds = %49
  %53 = icmp sgt i32 %50, 0
  br i1 %53, label %54, label %71

54:                                               ; preds = %52
  %55 = and i64 %45, 4294967295
  br label %58

56:                                               ; preds = %3, %13, %49
  %57 = tail call nonnull align 8 dereferenceable(8) %"class.std::basic_ostream"* @_ZSt16__ostream_insertIcSt11char_traitsIcEERSt13basic_ostreamIT_T0_ES6_PKS3_l(%"class.std::basic_ostream"* nonnull align 8 dereferenceable(8) @_ZSt4cout, i8* nonnull getelementptr inbounds ([2 x i8], [2 x i8]* @.str, i64 0, i64 0), i64 1)
  br label %71

58:                                               ; preds = %54, %58
  %59 = phi i64 [ %55, %54 ], [ %70, %58 ]
  %60 = phi i32 [ %50, %54 ], [ %61, %58 ]
  %61 = add nsw i32 %60, -1
  %62 = zext i32 %61 to i64
  %63 = getelementptr inbounds [50 x i32], [50 x i32]* %5, i64 0, i64 %62
  %64 = load i32, i32* %63, align 4, !tbaa !10
  %65 = sext i32 %64 to i64
  %66 = getelementptr inbounds [36 x i8], [36 x i8]* @__const._Z3runiPci.d, i64 0, i64 %65
  %67 = load i8, i8* %66, align 1, !tbaa !5
  call void @llvm.lifetime.start.p0i8(i64 1, i8* nonnull %4)
  store i8 %67, i8* %4, align 1, !tbaa !5
  %68 = call nonnull align 8 dereferenceable(8) %"class.std::basic_ostream"* @_ZSt16__ostream_insertIcSt11char_traitsIcEERSt13basic_ostreamIT_T0_ES6_PKS3_l(%"class.std::basic_ostream"* nonnull align 8 dereferenceable(8) @_ZSt4cout, i8* nonnull %4, i64 1)
  call void @llvm.lifetime.end.p0i8(i64 1, i8* nonnull %4)
  %69 = icmp sgt i64 %59, 1
  %70 = add nsw i64 %59, -1
  br i1 %69, label %58, label %71, !llvm.loop !13

71:                                               ; preds = %58, %52, %56
  call void @llvm.lifetime.end.p0i8(i64 200, i8* nonnull %8) #11
  ret void
}

; Function Attrs: argmemonly mustprogress nofree nosync nounwind willreturn
declare void @llvm.lifetime.start.p0i8(i64 immarg, i8* nocapture) #4

; Function Attrs: argmemonly mustprogress nofree nounwind readonly willreturn
declare i64 @strlen(i8* nocapture) local_unnamed_addr #5

; Function Attrs: argmemonly mustprogress nofree nounwind willreturn writeonly
declare void @llvm.memset.p0i8.i64(i8* nocapture writeonly, i8, i64, i1 immarg) #6

; Function Attrs: argmemonly mustprogress nofree nosync nounwind willreturn
declare void @llvm.lifetime.end.p0i8(i64 immarg, i8* nocapture) #4

; Function Attrs: mustprogress norecurse sspstrong uwtable
define dso_local i32 @main() local_unnamed_addr #7 {
  %1 = alloca i32, align 4
  %2 = alloca i32, align 4
  %3 = alloca [50 x i8], align 16
  %4 = getelementptr inbounds [50 x i8], [50 x i8]* %3, i64 0, i64 0
  %5 = bitcast i32* %1 to i8*
  call void @llvm.lifetime.start.p0i8(i64 4, i8* nonnull %5) #11
  %6 = bitcast i32* %2 to i8*
  call void @llvm.lifetime.start.p0i8(i64 4, i8* nonnull %6) #11
  %7 = getelementptr inbounds [50 x i8], [50 x i8]* %3, i64 0, i64 0
  call void @llvm.lifetime.start.p0i8(i64 50, i8* nonnull %7) #11
  call void @llvm.memset.p0i8.i64(i8* noundef nonnull align 16 dereferenceable(50) %4, i8 0, i64 50, i1 false)
  %8 = call nonnull align 8 dereferenceable(16) %"class.std::basic_istream"* @_ZNSirsERi(%"class.std::basic_istream"* nonnull align 8 dereferenceable(16) @_ZSt3cin, i32* nonnull align 4 dereferenceable(4) %1)
  call void @_ZSt17__istream_extractRSiPcl(%"class.std::basic_istream"* nonnull align 8 dereferenceable(16) %8, i8* nonnull %7, i64 50)
  %9 = call nonnull align 8 dereferenceable(16) %"class.std::basic_istream"* @_ZNSirsERi(%"class.std::basic_istream"* nonnull align 8 dereferenceable(16) %8, i32* nonnull align 4 dereferenceable(4) %2)
  %10 = load i32, i32* %1, align 4, !tbaa !10
  %11 = load i32, i32* %2, align 4, !tbaa !10
  call void @_Z3runiPci(i32 %10, i8* nonnull %7, i32 %11)
  call void @llvm.lifetime.end.p0i8(i64 50, i8* nonnull %7) #11
  call void @llvm.lifetime.end.p0i8(i64 4, i8* nonnull %6) #11
  call void @llvm.lifetime.end.p0i8(i64 4, i8* nonnull %5) #11
  ret i32 0
}

declare nonnull align 8 dereferenceable(16) %"class.std::basic_istream"* @_ZNSirsERi(%"class.std::basic_istream"* nonnull align 8 dereferenceable(16), i32* nonnull align 4 dereferenceable(4)) local_unnamed_addr #0

; Function Attrs: mustprogress nofree nounwind willreturn
declare double @pow(double, double) local_unnamed_addr #8

declare nonnull align 8 dereferenceable(8) %"class.std::basic_ostream"* @_ZSt16__ostream_insertIcSt11char_traitsIcEERSt13basic_ostreamIT_T0_ES6_PKS3_l(%"class.std::basic_ostream"* nonnull align 8 dereferenceable(8), i8*, i64) local_unnamed_addr #0

declare void @_ZSt17__istream_extractRSiPcl(%"class.std::basic_istream"* nonnull align 8 dereferenceable(16), i8*, i64) local_unnamed_addr #0

; Function Attrs: sspstrong uwtable
define internal void @_GLOBAL__sub_I_1339.cpp() #9 section ".text.startup" {
  tail call void @_ZNSt8ios_base4InitC1Ev(%"class.std::ios_base::Init"* nonnull align 1 dereferenceable(1) @_ZStL8__ioinit)
  %1 = tail call i32 @__cxa_atexit(void (i8*)* bitcast (void (%"class.std::ios_base::Init"*)* @_ZNSt8ios_base4InitD1Ev to void (i8*)*), i8* getelementptr inbounds (%"class.std::ios_base::Init", %"class.std::ios_base::Init"* @_ZStL8__ioinit, i64 0, i32 0), i8* nonnull @__dso_handle) #11
  ret void
}


!llvm.module.flags = !{!0, !1, !2, !3}
!llvm.ident = !{!4}

!0 = !{i32 1, !"wchar_size", i32 4}
!1 = !{i32 7, !"PIC Level", i32 2}
!2 = !{i32 7, !"PIE Level", i32 2}
!3 = !{i32 7, !"uwtable", i32 1}
!4 = !{!"clang version 13.0.0"}
!5 = !{!6, !6, i64 0}
!6 = !{!"omnipotent char", !7, i64 0}
!7 = !{!"Simple C++ TBAA"}
!8 = distinct !{!8, !9}
!9 = !{!"llvm.loop.mustprogress"}
!10 = !{!11, !11, i64 0}
!11 = !{!"int", !6, i64 0}
!12 = distinct !{!12, !9}
!13 = distinct !{!13, !9}
